; Function Attrs: mustprogress uwtable
define dso_local void @_ZNSt3__17promiseIvEC2Ev(ptr noundef nonnull writeonly align 8 captures(none) dereferenceable(8) initializes((0, 8)) %0) unnamed_addr #1 align 2 personality ptr @__gxx_personality_v0 {
  %2 = tail call noalias noundef nonnull dereferenceable(120) ptr @_Znwm(i64 noundef 120) #20
  %3 = getelementptr inbounds nuw i8, ptr %2, i64 8
  store i64 0, ptr %3, align 8, !tbaa !38
  store ptr getelementptr inbounds nuw inrange(-16, 32) (i8, ptr @_ZTVNSt3__117__assoc_sub_stateE, i64 16), ptr %2, align 8, !tbaa !8
  %4 = getelementptr inbounds nuw i8, ptr %2, i64 16
  tail call void @llvm.memset.p0.i64(ptr noundef nonnull align 8 dereferenceable(100) %4, i8 0, i64 100, i1 false)
  store ptr %2, ptr %0, align 8, !tbaa !39
  ret void
}